target datalayout = "e-m:e-p270:32:32-p271:32:32-p272:64:64-i64:64-i128:128-f80:128-n8:16:32:64-S128"
target triple = "x86_64-pc-linux-gnu"

%"class.llvm::opt::Option" = type { ptr, ptr }
%"class.llvm::SmallVectorBase" = type { ptr, i32, i32 }
%"class.llvm::opt::Arg" = type { %"class.llvm::opt::Option", ptr, %"class.llvm::StringRef", i32, i8, %"class.llvm::SmallVector.0", %"class.std::unique_ptr" }
%"class.llvm::StringRef" = type { ptr, i64 }
%"class.llvm::SmallVector.0" = type { %"class.llvm::SmallVectorImpl.1", %"struct.llvm::SmallVectorStorage.4" }
%"class.llvm::SmallVectorImpl.1" = type { %"class.llvm::SmallVectorTemplateBase.2" }
%"class.llvm::SmallVectorTemplateBase.2" = type { %"class.llvm::SmallVectorTemplateCommon.3" }
%"class.llvm::SmallVectorTemplateCommon.3" = type { %"class.llvm::SmallVectorBase" }
%"struct.llvm::SmallVectorStorage.4" = type { [16 x i8] }
%"class.std::unique_ptr" = type { %"struct.std::__uniq_ptr_data" }
%"struct.std::__uniq_ptr_data" = type { %"class.std::__uniq_ptr_impl" }
%"class.std::__uniq_ptr_impl" = type { %"class.std::tuple" }
%"class.std::tuple" = type { %"struct.std::_Tuple_impl" }
%"struct.std::_Tuple_impl" = type { %"struct.std::_Head_base.6" }
%"struct.std::_Head_base.6" = type { ptr }
%"class.llvm::opt::OptSpecifier" = type { i32 }
%"class.llvm::iterator_range.46" = type { %"class.llvm::opt::arg_iterator.47", %"class.llvm::opt::arg_iterator.47" }
%"class.llvm::opt::arg_iterator.47" = type { ptr, ptr, [2 x %"class.llvm::opt::OptSpecifier"] }

; Function Attrs: mustprogress nounwind uwtable
define linkonce_odr hidden noundef zeroext i1 @_ZNK4llvm3opt12OptSpecifier7isValidEv(ptr noundef nonnull align 4 dereferenceable(4) %0) #0 comdat align 2 {
  %2 = alloca ptr, align 8
  store ptr %0, ptr %2, align 8
  %3 = load ptr, ptr %2, align 8
  %4 = getelementptr inbounds nuw %"class.llvm::opt::OptSpecifier", ptr %3, i32 0, i32 0
  %5 = load i32, ptr %4, align 4
  %6 = icmp ne i32 %5, 0
  ret i1 %6
}

; Function Attrs: mustprogress nounwind uwtable
define linkonce_odr hidden void @_ZN4llvm3opt12arg_iteratorIPKPNS0_3ArgELj2EE13SkipToNextArgEv(ptr noundef nonnull align 8 dereferenceable(24) %0) #0 comdat align 2 {
  %2 = alloca ptr, align 8
  %3 = alloca ptr, align 8
  %4 = alloca ptr, align 8
  %5 = alloca ptr, align 8
  %6 = alloca ptr, align 8
  %7 = alloca %"class.llvm::opt::OptSpecifier", align 4
  %8 = alloca %"class.llvm::opt::OptSpecifier", align 4
  store ptr %0, ptr %2, align 8
  %9 = load ptr, ptr %2, align 8
  br label %10

10:                                               ; preds = %52, %1
  %11 = getelementptr inbounds nuw %"class.llvm::opt::arg_iterator.47", ptr %9, i32 0, i32 0
  %12 = load ptr, ptr %11, align 8
  %13 = getelementptr inbounds nuw %"class.llvm::opt::arg_iterator.47", ptr %9, i32 0, i32 1
  %14 = load ptr, ptr %13, align 8
  %15 = icmp ne ptr %12, %14
  br i1 %15, label %16, label %56

16:                                               ; preds = %10
  %17 = getelementptr inbounds nuw %"class.llvm::opt::arg_iterator.47", ptr %9, i32 0, i32 0
  %18 = load ptr, ptr %17, align 8
  %19 = load ptr, ptr %18, align 8
  %20 = icmp ne ptr %19, null
  br i1 %20, label %22, label %21

21:                                               ; preds = %16
  br label %52

22:                                               ; preds = %16
  %23 = getelementptr inbounds nuw %"class.llvm::opt::arg_iterator.47", ptr %9, i32 0, i32 0
  %24 = load ptr, ptr %23, align 8
  %25 = load ptr, ptr %24, align 8
  %26 = call noundef nonnull align 8 dereferenceable(16) ptr @_ZNK4llvm3opt3Arg9getOptionEv(ptr noundef nonnull align 8 dereferenceable(88) %25)
  store ptr %26, ptr %3, align 8
  %27 = getelementptr inbounds nuw %"class.llvm::opt::arg_iterator.47", ptr %9, i32 0, i32 2
  store ptr %27, ptr %4, align 8
  %28 = load ptr, ptr %4, align 8
  %29 = getelementptr inbounds [2 x %"class.llvm::opt::OptSpecifier"], ptr %28, i64 0, i64 0
  store ptr %29, ptr %5, align 8
  %30 = load ptr, ptr %4, align 8
  %31 = getelementptr inbounds [2 x %"class.llvm::opt::OptSpecifier"], ptr %30, i64 0, i64 0
  %32 = getelementptr inbounds %"class.llvm::opt::OptSpecifier", ptr %31, i64 2
  store ptr %32, ptr %6, align 8
  br label %33

33:                                               ; preds = %48, %22
  %34 = load ptr, ptr %5, align 8
  %35 = load ptr, ptr %6, align 8
  %36 = icmp ne ptr %34, %35
  br i1 %36, label %37, label %51

37:                                               ; preds = %33
  %38 = load ptr, ptr %5, align 8
  call void @llvm.memcpy.p0.p0.i64(ptr align 4 %7, ptr align 4 %38, i64 4, i1 false)
  %39 = call noundef zeroext i1 @_ZNK4llvm3opt12OptSpecifier7isValidEv(ptr noundef nonnull align 4 dereferenceable(4) %7)
  br i1 %39, label %41, label %40

40:                                               ; preds = %37
  br label %51

41:                                               ; preds = %37
  %42 = load ptr, ptr %3, align 8
  call void @llvm.memcpy.p0.p0.i64(ptr align 4 %8, ptr align 4 %7, i64 4, i1 false)
  %43 = getelementptr inbounds nuw %"class.llvm::opt::OptSpecifier", ptr %8, i32 0, i32 0
  %44 = load i32, ptr %43, align 4
  %45 = call noundef zeroext i1 @_ZNK4llvm3opt6Option7matchesENS0_12OptSpecifierE(ptr noundef nonnull align 8 dereferenceable(16) %42, i32 %44)
  br i1 %45, label %46, label %47

46:                                               ; preds = %41
  br label %56

47:                                               ; preds = %41
  br label %48

48:                                               ; preds = %47
  %49 = load ptr, ptr %5, align 8
  %50 = getelementptr inbounds %"class.llvm::opt::OptSpecifier", ptr %49, i32 1
  store ptr %50, ptr %5, align 8
  br label %33

51:                                               ; preds = %40, %33
  br label %52

52:                                               ; preds = %51, %21
  %53 = getelementptr inbounds nuw %"class.llvm::opt::arg_iterator.47", ptr %9, i32 0, i32 0
  %54 = load ptr, ptr %53, align 8
  %55 = getelementptr inbounds ptr, ptr %54, i32 1
  store ptr %55, ptr %53, align 8
  br label %10, !llvm.loop !21

56:                                               ; preds = %46, %10
  ret void
}

; Function Attrs: mustprogress nounwind uwtable
define linkonce_odr hidden noundef nonnull align 8 dereferenceable(88) ptr @_ZNK4llvm3opt3Arg10getBaseArgEv(ptr noundef nonnull align 8 dereferenceable(88) %0) #0 comdat align 2 {
  %2 = alloca ptr, align 8
  store ptr %0, ptr %2, align 8
  %3 = load ptr, ptr %2, align 8
  %4 = getelementptr inbounds nuw %"class.llvm::opt::Arg", ptr %3, i32 0, i32 1
  %5 = load ptr, ptr %4, align 8
  %6 = icmp ne ptr %5, null
  br i1 %6, label %7, label %10

7:                                                ; preds = %1
  %8 = getelementptr inbounds nuw %"class.llvm::opt::Arg", ptr %3, i32 0, i32 1
  %9 = load ptr, ptr %8, align 8
  br label %11

10:                                               ; preds = %1
  br label %11

11:                                               ; preds = %10, %7
  %12 = phi ptr [ %9, %7 ], [ %3, %10 ]
  ret ptr %12
}

; Function Attrs: mustprogress nounwind uwtable
define linkonce_odr hidden noundef zeroext i1 @_ZN4llvm3opteqENS0_12arg_iteratorIPKPNS0_3ArgELj2EEES6_(ptr noundef byval(%"class.llvm::opt::arg_iterator.47") align 8 %0, ptr noundef byval(%"class.llvm::opt::arg_iterator.47") align 8 %1) #0 comdat {
  %3 = getelementptr inbounds nuw %"class.llvm::opt::arg_iterator.47", ptr %0, i32 0, i32 0
  %4 = load ptr, ptr %3, align 8
  %5 = getelementptr inbounds nuw %"class.llvm::opt::arg_iterator.47", ptr %1, i32 0, i32 0
  %6 = load ptr, ptr %5, align 8
  %7 = icmp eq ptr %4, %6
  ret i1 %7
}

; Function Attrs: mustprogress nounwind uwtable
define linkonce_odr hidden noundef nonnull align 8 dereferenceable(24) ptr @_ZN4llvm3opt12arg_iteratorIPKPNS0_3ArgELj2EEppEv(ptr noundef nonnull align 8 dereferenceable(24) %0) #0 comdat align 2 {
  %2 = alloca ptr, align 8
  store ptr %0, ptr %2, align 8
  %3 = load ptr, ptr %2, align 8
  %4 = getelementptr inbounds nuw %"class.llvm::opt::arg_iterator.47", ptr %3, i32 0, i32 0
  %5 = load ptr, ptr %4, align 8
  %6 = getelementptr inbounds ptr, ptr %5, i32 1
  store ptr %6, ptr %4, align 8
  call void @_ZN4llvm3opt12arg_iteratorIPKPNS0_3ArgELj2EE13SkipToNextArgEv(ptr noundef nonnull align 8 dereferenceable(24) %3)
  ret ptr %3
}

; Function Attrs: mustprogress nounwind uwtable
define linkonce_odr hidden void @_ZNK4llvm3opt3Arg5claimEv(ptr noundef nonnull align 8 dereferenceable(88) %0) #0 comdat align 2 {
  %2 = alloca ptr, align 8
  store ptr %0, ptr %2, align 8
  %3 = load ptr, ptr %2, align 8
  %4 = call noundef nonnull align 8 dereferenceable(88) ptr @_ZNK4llvm3opt3Arg10getBaseArgEv(ptr noundef nonnull align 8 dereferenceable(88) %3)
  %5 = getelementptr inbounds nuw %"class.llvm::opt::Arg", ptr %4, i32 0, i32 4
  %6 = load i8, ptr %5, align 4
  %7 = and i8 %6, -2
  %8 = or i8 %7, 1
  store i8 %8, ptr %5, align 4
  ret void
}

; Function Attrs: mustprogress nounwind uwtable
define linkonce_odr hidden noundef nonnull align 8 dereferenceable(8) ptr @_ZNK4llvm3opt12arg_iteratorIPKPNS0_3ArgELj2EEdeEv(ptr noundef nonnull align 8 dereferenceable(24) %0) #0 comdat align 2 {
  %2 = alloca ptr, align 8
  store ptr %0, ptr %2, align 8
  %3 = load ptr, ptr %2, align 8
  %4 = getelementptr inbounds nuw %"class.llvm::opt::arg_iterator.47", ptr %3, i32 0, i32 0
  %5 = load ptr, ptr %4, align 8
  ret ptr %5
}

; Function Attrs: mustprogress nounwind uwtable
define linkonce_odr hidden noundef zeroext i1 @_ZN4llvm3optneENS0_12arg_iteratorIPKPNS0_3ArgELj2EEES6_(ptr noundef byval(%"class.llvm::opt::arg_iterator.47") align 8 %0, ptr noundef byval(%"class.llvm::opt::arg_iterator.47") align 8 %1) #0 comdat {
  %3 = alloca %"class.llvm::opt::arg_iterator.47", align 8
  %4 = alloca %"class.llvm::opt::arg_iterator.47", align 8
  call void @llvm.memcpy.p0.p0.i64(ptr align 8 %3, ptr align 8 %0, i64 24, i1 false)
  call void @llvm.memcpy.p0.p0.i64(ptr align 8 %4, ptr align 8 %1, i64 24, i1 false)
  %5 = call noundef zeroext i1 @_ZN4llvm3opteqENS0_12arg_iteratorIPKPNS0_3ArgELj2EEES6_(ptr noundef byval(%"class.llvm::opt::arg_iterator.47") align 8 %3, ptr noundef byval(%"class.llvm::opt::arg_iterator.47") align 8 %4)
  %6 = xor i1 %5, true
  ret i1 %6
}

; Function Attrs: mustprogress nounwind uwtable
define linkonce_odr hidden void @_ZNK4llvm14iterator_rangeINS_3opt12arg_iteratorIPKPNS1_3ArgELj2EEEE3endEv(ptr dead_on_unwind noalias writable sret(%"class.llvm::opt::arg_iterator.47") align 8 %0, ptr noundef nonnull align 8 dereferenceable(48) %1) #0 comdat align 2 {
  %3 = alloca ptr, align 8
  store ptr %1, ptr %3, align 8
  %4 = load ptr, ptr %3, align 8
  %5 = getelementptr inbounds nuw %"class.llvm::iterator_range.46", ptr %4, i32 0, i32 1
  call void @llvm.memcpy.p0.p0.i64(ptr align 8 %0, ptr align 8 %5, i64 24, i1 false)
  ret void
}

; Function Attrs: mustprogress nounwind uwtable
define linkonce_odr hidden void @_ZNK4llvm14iterator_rangeINS_3opt12arg_iteratorIPKPNS1_3ArgELj2EEEE5beginEv(ptr dead_on_unwind noalias writable sret(%"class.llvm::opt::arg_iterator.47") align 8 %0, ptr noundef nonnull align 8 dereferenceable(48) %1) #0 comdat align 2 {
  %3 = alloca ptr, align 8
  store ptr %1, ptr %3, align 8
  %4 = load ptr, ptr %3, align 8
  %5 = getelementptr inbounds nuw %"class.llvm::iterator_range.46", ptr %4, i32 0, i32 0
  call void @llvm.memcpy.p0.p0.i64(ptr align 8 %0, ptr align 8 %5, i64 24, i1 false)
  ret void
}

; Function Attrs: mustprogress nounwind uwtable
define linkonce_odr hidden noundef nonnull align 8 dereferenceable(16) ptr @_ZNK4llvm3opt3Arg9getOptionEv(ptr noundef nonnull align 8 dereferenceable(88) %0) #0 comdat align 2 {
  %2 = alloca ptr, align 8
  store ptr %0, ptr %2, align 8
  %3 = load ptr, ptr %2, align 8
  %4 = getelementptr inbounds nuw %"class.llvm::opt::Arg", ptr %3, i32 0, i32 0
  ret ptr %4
}

; Function Attrs: mustprogress nounwind uwtable
define linkonce_odr hidden noundef ptr @_ZNK4llvm3opt7ArgList10getLastArgIJNS0_12OptSpecifierES3_EEEPNS0_3ArgEDpT_(ptr noundef nonnull align 8 dereferenceable(176) %0, i32 %1, i32 %2) #0 comdat align 2 {
  %4 = alloca %"class.llvm::opt::OptSpecifier", align 4
  %5 = alloca %"class.llvm::opt::OptSpecifier", align 4
  %6 = alloca ptr, align 8
  %7 = alloca ptr, align 8
  %8 = alloca ptr, align 8
  %9 = alloca %"class.llvm::iterator_range.46", align 8
  %10 = alloca %"class.llvm::opt::OptSpecifier", align 4
  %11 = alloca %"class.llvm::opt::OptSpecifier", align 4
  %12 = alloca %"class.llvm::opt::arg_iterator.47", align 8
  %13 = alloca %"class.llvm::opt::arg_iterator.47", align 8
  %14 = alloca %"class.llvm::opt::arg_iterator.47", align 8
  %15 = alloca %"class.llvm::opt::arg_iterator.47", align 8
  %16 = alloca ptr, align 8
  %17 = getelementptr inbounds nuw %"class.llvm::opt::OptSpecifier", ptr %4, i32 0, i32 0
  store i32 %1, ptr %17, align 4
  %18 = getelementptr inbounds nuw %"class.llvm::opt::OptSpecifier", ptr %5, i32 0, i32 0
  store i32 %2, ptr %18, align 4
  store ptr %0, ptr %6, align 8
  %19 = load ptr, ptr %6, align 8
  store ptr null, ptr %7, align 8
  call void @llvm.memcpy.p0.p0.i64(ptr align 4 %10, ptr align 4 %4, i64 4, i1 false)
  call void @llvm.memcpy.p0.p0.i64(ptr align 4 %11, ptr align 4 %5, i64 4, i1 false)
  %20 = getelementptr inbounds nuw %"class.llvm::opt::OptSpecifier", ptr %10, i32 0, i32 0
  %21 = load i32, ptr %20, align 4
  %22 = getelementptr inbounds nuw %"class.llvm::opt::OptSpecifier", ptr %11, i32 0, i32 0
  %23 = load i32, ptr %22, align 4
  call void @_ZNK4llvm3opt7ArgList8filteredIJNS0_12OptSpecifierES3_EEENS_14iterator_rangeINS0_12arg_iteratorIPKPNS0_3ArgEXsZT_EEEEEDpT_(ptr dead_on_unwind writable sret(%"class.llvm::iterator_range.46") align 8 %9, ptr noundef nonnull align 8 dereferenceable(176) %19, i32 %21, i32 %23)
  store ptr %9, ptr %8, align 8
  %24 = load ptr, ptr %8, align 8
  call void @_ZNK4llvm14iterator_rangeINS_3opt12arg_iteratorIPKPNS1_3ArgELj2EEEE5beginEv(ptr dead_on_unwind writable sret(%"class.llvm::opt::arg_iterator.47") align 8 %12, ptr noundef nonnull align 8 dereferenceable(48) %24)
  %25 = load ptr, ptr %8, align 8
  call void @_ZNK4llvm14iterator_rangeINS_3opt12arg_iteratorIPKPNS1_3ArgELj2EEEE3endEv(ptr dead_on_unwind writable sret(%"class.llvm::opt::arg_iterator.47") align 8 %13, ptr noundef nonnull align 8 dereferenceable(48) %25)
  br label %26

26:                                               ; preds = %33, %3
  call void @llvm.memcpy.p0.p0.i64(ptr align 8 %14, ptr align 8 %12, i64 24, i1 false)
  call void @llvm.memcpy.p0.p0.i64(ptr align 8 %15, ptr align 8 %13, i64 24, i1 false)
  %27 = call noundef zeroext i1 @_ZN4llvm3optneENS0_12arg_iteratorIPKPNS0_3ArgELj2EEES6_(ptr noundef byval(%"class.llvm::opt::arg_iterator.47") align 8 %14, ptr noundef byval(%"class.llvm::opt::arg_iterator.47") align 8 %15)
  br i1 %27, label %28, label %35

28:                                               ; preds = %26
  %29 = call noundef nonnull align 8 dereferenceable(8) ptr @_ZNK4llvm3opt12arg_iteratorIPKPNS0_3ArgELj2EEdeEv(ptr noundef nonnull align 8 dereferenceable(24) %12)
  %30 = load ptr, ptr %29, align 8
  store ptr %30, ptr %16, align 8
  %31 = load ptr, ptr %16, align 8
  store ptr %31, ptr %7, align 8
  %32 = load ptr, ptr %7, align 8
  call void @_ZNK4llvm3opt3Arg5claimEv(ptr noundef nonnull align 8 dereferenceable(88) %32)
  br label %33

33:                                               ; preds = %28
  %34 = call noundef nonnull align 8 dereferenceable(24) ptr @_ZN4llvm3opt12arg_iteratorIPKPNS0_3ArgELj2EEppEv(ptr noundef nonnull align 8 dereferenceable(24) %12)
  br label %26

35:                                               ; preds = %26
  %36 = load ptr, ptr %7, align 8
  ret ptr %36
}

; Function Attrs: mustprogress nounwind uwtable
define dso_local noundef zeroext i1 @_ZNK4llvm3opt7ArgList7hasFlagENS0_12OptSpecifierES2_b(ptr noundef nonnull align 8 dereferenceable(176) %0, i32 %1, i32 %2, i1 noundef zeroext %3) #0 align 2 {
  %5 = alloca i1, align 1
  %6 = alloca %"class.llvm::opt::OptSpecifier", align 4
  %7 = alloca %"class.llvm::opt::OptSpecifier", align 4
  %8 = alloca ptr, align 8
  %9 = alloca i8, align 1
  %10 = alloca ptr, align 8
  %11 = alloca %"class.llvm::opt::OptSpecifier", align 4
  %12 = alloca %"class.llvm::opt::OptSpecifier", align 4
  %13 = alloca %"class.llvm::opt::OptSpecifier", align 4
  %14 = getelementptr inbounds nuw %"class.llvm::opt::OptSpecifier", ptr %6, i32 0, i32 0
  store i32 %1, ptr %14, align 4
  %15 = getelementptr inbounds nuw %"class.llvm::opt::OptSpecifier", ptr %7, i32 0, i32 0
  store i32 %2, ptr %15, align 4
  store ptr %0, ptr %8, align 8
  %16 = zext i1 %3 to i8
  store i8 %16, ptr %9, align 1
  %17 = load ptr, ptr %8, align 8
  call void @llvm.memcpy.p0.p0.i64(ptr align 4 %11, ptr align 4 %6, i64 4, i1 false)
  call void @llvm.memcpy.p0.p0.i64(ptr align 4 %12, ptr align 4 %7, i64 4, i1 false)
  %18 = getelementptr inbounds nuw %"class.llvm::opt::OptSpecifier", ptr %11, i32 0, i32 0
  %19 = load i32, ptr %18, align 4
  %20 = getelementptr inbounds nuw %"class.llvm::opt::OptSpecifier", ptr %12, i32 0, i32 0
  %21 = load i32, ptr %20, align 4
  %22 = call noundef ptr @_ZNK4llvm3opt7ArgList10getLastArgIJNS0_12OptSpecifierES3_EEEPNS0_3ArgEDpT_(ptr noundef nonnull align 8 dereferenceable(176) %17, i32 %19, i32 %21)
  store ptr %22, ptr %10, align 8
  %23 = load ptr, ptr %10, align 8
  %24 = icmp ne ptr %23, null
  br i1 %24, label %25, label %31

25:                                               ; preds = %4
  %26 = load ptr, ptr %10, align 8
  %27 = call noundef nonnull align 8 dereferenceable(16) ptr @_ZNK4llvm3opt3Arg9getOptionEv(ptr noundef nonnull align 8 dereferenceable(88) %26)
  call void @llvm.memcpy.p0.p0.i64(ptr align 4 %13, ptr align 4 %6, i64 4, i1 false)
  %28 = getelementptr inbounds nuw %"class.llvm::opt::OptSpecifier", ptr %13, i32 0, i32 0
  %29 = load i32, ptr %28, align 4
  %30 = call noundef zeroext i1 @_ZNK4llvm3opt6Option7matchesENS0_12OptSpecifierE(ptr noundef nonnull align 8 dereferenceable(16) %27, i32 %29)
  store i1 %30, ptr %5, align 1
  br label %34

31:                                               ; preds = %4
  %32 = load i8, ptr %9, align 1
  %33 = trunc i8 %32 to i1
  store i1 %33, ptr %5, align 1
  br label %34

34:                                               ; preds = %31, %25
  %35 = load i1, ptr %5, align 1
  ret i1 %35
}